target datalayout = "e-m:e-p270:32:32-p271:32:32-p272:64:64-i64:64-i128:128-f80:128-n8:16:32:64-S128"
target triple = "x86_64-pc-linux-gnu"

%"class.duckdb_apache::thrift::transport::TBufferBase" = type { %"class.duckdb_apache::thrift::transport::TVirtualTransport.0", ptr, ptr, ptr, ptr }
%"class.duckdb_apache::thrift::transport::TVirtualTransport.0" = type { %"class.duckdb_apache::thrift::transport::TTransportDefaults" }
%"class.duckdb_apache::thrift::transport::TTransportDefaults" = type { %"class.duckdb_apache::thrift::transport::TTransport" }
%"class.duckdb_apache::thrift::transport::TTransport" = type { ptr }

; Function Attrs: mustprogress uwtable
define void @_ZN13duckdb_apache6thrift9transport13TMemoryBuffer9writeSlowEPKhj(ptr noundef nonnull align 8 dereferenceable(57) %0, ptr noundef %1, i32 noundef %2) unnamed_addr #0 align 2 {
  %4 = alloca ptr, align 8
  %5 = alloca ptr, align 8
  %6 = alloca i32, align 4
  store ptr %0, ptr %4, align 8, !tbaa !3
  store ptr %1, ptr %5, align 8, !tbaa !22
  store i32 %2, ptr %6, align 4, !tbaa !8
  %7 = load ptr, ptr %4, align 8
  %8 = load i32, ptr %6, align 4, !tbaa !8
  call void @_ZN13duckdb_apache6thrift9transport13TMemoryBuffer14ensureCanWriteEj(ptr noundef nonnull align 8 dereferenceable(57) %7, i32 noundef %8)
  %9 = getelementptr inbounds nuw %"class.duckdb_apache::thrift::transport::TBufferBase", ptr %7, i32 0, i32 3
  %10 = load ptr, ptr %9, align 8, !tbaa !14
  %11 = load ptr, ptr %5, align 8, !tbaa !22
  %12 = load i32, ptr %6, align 4, !tbaa !8
  %13 = zext i32 %12 to i64
  call void @llvm.memcpy.p0.p0.i64(ptr align 1 %10, ptr align 1 %11, i64 %13, i1 false)
  %14 = load i32, ptr %6, align 4, !tbaa !8
  %15 = getelementptr inbounds nuw %"class.duckdb_apache::thrift::transport::TBufferBase", ptr %7, i32 0, i32 3
  %16 = load ptr, ptr %15, align 8, !tbaa !14
  %17 = zext i32 %14 to i64
  %18 = getelementptr inbounds nuw i8, ptr %16, i64 %17
  store ptr %18, ptr %15, align 8, !tbaa !14
  ret void
}