; Function Attrs: mustprogress uwtable
define void @_ZN13duckdb_apache6thrift9transport13TMemoryBuffer9writeSlowEPKhj(ptr noundef nonnull align 8 captures(none) dereferenceable(57) %0, ptr noundef readonly captures(none) %1, i32 noundef %2) unnamed_addr #4 align 2 {
  tail call void @_ZN13duckdb_apache6thrift9transport13TMemoryBuffer14ensureCanWriteEj(ptr noundef nonnull align 8 dereferenceable(57) %0, i32 noundef %2)
  %4 = getelementptr inbounds nuw i8, ptr %0, i64 24
  %5 = load ptr, ptr %4, align 8, !tbaa !3
  %6 = zext i32 %2 to i64
  tail call void @llvm.memcpy.p0.p0.i64(ptr align 1 %5, ptr align 1 %1, i64 %6, i1 false)
  %7 = load ptr, ptr %4, align 8, !tbaa !3
  %8 = getelementptr inbounds nuw i8, ptr %7, i64 %6
  store ptr %8, ptr %4, align 8, !tbaa !3
  ret void
}